target datalayout = "e-m:e-p270:32:32-p271:32:32-p272:64:64-i64:64-i128:128-f80:128-n8:16:32:64-S128"
target triple = "x86_64-pc-linux-gnu"

%struct.PJconsts = type <{ ptr, ptr, ptr, ptr, ptr, ptr, ptr, ptr, ptr, ptr, ptr, ptr, i32, [4 x i8], ptr, ptr, ptr, ptr, ptr, ptr, ptr, ptr, double, double, double, double, double, double, double, double, double, double, double, double, double, double, double, double, double, double, double, double, double, double, i32, i32, i32, i32, i32, i32, i32, i32, i32, i32, i32, [4 x i8], ptr, ptr, ptr, ptr, ptr, ptr, double, double, double, double, double, double, double, double, double, double, double, i32, [4 x i8], [7 x double], i32, [4 x i8], ptr, ptr, double, double, i32, [4 x i8], %"class.std::shared_ptr", i8, [7 x i8], double, i8, [7 x i8], %"class.std::__cxx11::basic_string", %"class.std::__cxx11::basic_string", %"class.std::__cxx11::basic_string", i8, [7 x i8], %"class.std::vector", i32, [4 x i8], %"class.std::vector.3", i32, i8, i8, i8, i8 }>
%"class.std::shared_ptr" = type { %"class.std::__shared_ptr" }
%"class.std::__shared_ptr" = type { ptr, %"class.std::__shared_count" }
%"class.std::__shared_count" = type { ptr }
%"class.std::__cxx11::basic_string" = type { %"struct.std::__cxx11::basic_string<char>::_Alloc_hider", i64, %union.anon }
%"struct.std::__cxx11::basic_string<char>::_Alloc_hider" = type { ptr }
%union.anon = type { i64, [8 x i8] }
%"class.std::vector" = type { %"struct.std::_Vector_base" }
%"struct.std::_Vector_base" = type { %"struct.std::_Vector_base<osgeo::proj::operation::GridDescription, std::allocator<osgeo::proj::operation::GridDescription>>::_Vector_impl" }
%"struct.std::_Vector_base<osgeo::proj::operation::GridDescription, std::allocator<osgeo::proj::operation::GridDescription>>::_Vector_impl" = type { %"struct.std::_Vector_base<osgeo::proj::operation::GridDescription, std::allocator<osgeo::proj::operation::GridDescription>>::_Vector_impl_data" }
%"struct.std::_Vector_base<osgeo::proj::operation::GridDescription, std::allocator<osgeo::proj::operation::GridDescription>>::_Vector_impl_data" = type { ptr, ptr, ptr }
%"class.std::vector.3" = type { %"struct.std::_Vector_base.4" }
%"struct.std::_Vector_base.4" = type { %"struct.std::_Vector_base<PJCoordOperation, std::allocator<PJCoordOperation>>::_Vector_impl" }
%"struct.std::_Vector_base<PJCoordOperation, std::allocator<PJCoordOperation>>::_Vector_impl" = type { %"struct.std::_Vector_base<PJCoordOperation, std::allocator<PJCoordOperation>>::_Vector_impl_data" }
%"struct.std::_Vector_base<PJCoordOperation, std::allocator<PJCoordOperation>>::_Vector_impl_data" = type { ptr, ptr, ptr }
%"struct.(anonymous namespace)::pj_putp4p_data" = type { double, double }

; Function Attrs: mustprogress uwtable
define hidden noundef ptr @_Z35pj_projection_specific_setup_putp4pP8PJconsts(ptr noundef %0) #0 {
  %2 = alloca ptr, align 8
  %3 = alloca ptr, align 8
  %4 = alloca ptr, align 8
  store ptr %0, ptr %3, align 8
  %5 = call noalias ptr @calloc(i64 noundef 1, i64 noundef 16) #5
  store ptr %5, ptr %4, align 8
  %6 = load ptr, ptr %4, align 8
  %7 = icmp eq ptr null, %6
  br i1 %7, label %8, label %11

8:                                                ; preds = %1
  %9 = load ptr, ptr %3, align 8
  %10 = call noundef ptr @_Z21pj_default_destructorP8PJconstsi(ptr noundef %9, i32 noundef 4096)
  store ptr %10, ptr %2, align 8
  br label %26

11:                                               ; preds = %1
  %12 = load ptr, ptr %4, align 8
  %13 = load ptr, ptr %3, align 8
  %14 = getelementptr inbounds %struct.PJconsts, ptr %13, i32 0, i32 11
  store ptr %12, ptr %14, align 8
  %15 = load ptr, ptr %4, align 8
  %16 = getelementptr inbounds %"struct.(anonymous namespace)::pj_putp4p_data", ptr %15, i32 0, i32 0
  store double 0x3FEBF820199D5761, ptr %16, align 8
  %17 = load ptr, ptr %4, align 8
  %18 = getelementptr inbounds %"struct.(anonymous namespace)::pj_putp4p_data", ptr %17, i32 0, i32 1
  store double 0x400F10E655340EFB, ptr %18, align 8
  %19 = load ptr, ptr %3, align 8
  %20 = getelementptr inbounds %struct.PJconsts, ptr %19, i32 0, i32 28
  store double 0.000000e+00, ptr %20, align 8
  %21 = load ptr, ptr %3, align 8
  %22 = getelementptr inbounds %struct.PJconsts, ptr %21, i32 0, i32 15
  store ptr @_ZL16putp4p_s_inverse5PJ_XYP8PJconsts, ptr %22, align 8
  %23 = load ptr, ptr %3, align 8
  %24 = getelementptr inbounds %struct.PJconsts, ptr %23, i32 0, i32 14
  store ptr @_ZL16putp4p_s_forward5PJ_LPP8PJconsts, ptr %24, align 8
  %25 = load ptr, ptr %3, align 8
  store ptr %25, ptr %2, align 8
  br label %26

26:                                               ; preds = %11, %8
  %27 = load ptr, ptr %2, align 8
  ret ptr %27
}